; Function Attrs: nounwind sspstrong uwtable
define range(i32 0, 2) i32 @cJSON_AddItemToObjectCS(ptr noundef %0, ptr noundef %1, ptr noundef %2) local_unnamed_addr #8 {
  %4 = icmp eq ptr %0, null
  %5 = icmp eq ptr %1, null
  %or.cond.i = or i1 %4, %5
  %6 = icmp eq ptr %2, null
  %or.cond3.i = or i1 %or.cond.i, %6
  %7 = icmp eq ptr %0, %2
  %or.cond34.i = or i1 %7, %or.cond3.i
  br i1 %or.cond34.i, label %add_item_to_object.exit, label %8

8:                                                ; preds = %3
  %9 = getelementptr inbounds nuw i8, ptr %2, i64 24
  %10 = load i32, ptr %9, align 8, !tbaa !11
  %11 = or i32 %10, 512
  %12 = and i32 %10, 512
  %.not32.i = icmp eq i32 %12, 0
  br i1 %.not32.i, label %13, label %18

13:                                               ; preds = %8
  %14 = getelementptr inbounds nuw i8, ptr %2, i64 56
  %15 = load ptr, ptr %14, align 8, !tbaa !26
  %.not33.i = icmp eq ptr %15, null
  br i1 %.not33.i, label %18, label %16

16:                                               ; preds = %13
  %17 = load ptr, ptr getelementptr inbounds nuw (i8, ptr @global_hooks, i64 8), align 8, !tbaa !22
  tail call void %17(ptr noundef nonnull %15) #31
  br label %18

18:                                               ; preds = %16, %13, %8
  %19 = getelementptr inbounds nuw i8, ptr %2, i64 56
  store ptr %1, ptr %19, align 8, !tbaa !26
  store i32 %11, ptr %9, align 8, !tbaa !11
  %20 = getelementptr inbounds nuw i8, ptr %0, i64 16
  %21 = load ptr, ptr %20, align 8, !tbaa !25
  %22 = icmp eq ptr %21, null
  br i1 %22, label %23, label %25

23:                                               ; preds = %18
  store ptr %2, ptr %20, align 8, !tbaa !25
  %24 = getelementptr inbounds nuw i8, ptr %2, i64 8
  store ptr %2, ptr %24, align 8, !tbaa !40
  store ptr null, ptr %2, align 8, !tbaa !24
  br label %add_item_to_object.exit

25:                                               ; preds = %18
  %26 = getelementptr inbounds nuw i8, ptr %21, i64 8
  %27 = load ptr, ptr %26, align 8, !tbaa !40
  %.not.i.i = icmp eq ptr %27, null
  br i1 %.not.i.i, label %add_item_to_object.exit, label %28

28:                                               ; preds = %25
  store ptr %2, ptr %27, align 8, !tbaa !24
  %29 = getelementptr inbounds nuw i8, ptr %2, i64 8
  store ptr %27, ptr %29, align 8, !tbaa !40
  store ptr %2, ptr %26, align 8, !tbaa !40
  br label %add_item_to_object.exit

add_item_to_object.exit:                          ; preds = %3, %23, %25, %28
  %.026.i = phi i32 [ 0, %3 ], [ 1, %23 ], [ 1, %25 ], [ 1, %28 ]
  ret i32 %.026.i
}